target datalayout = "e-m:e-p270:32:32-p271:32:32-p272:64:64-i64:64-i128:128-f80:128-n8:16:32:64-S128"
target triple = "x86_64-pc-linux-gnu"

%struct.Abc_Obj_t_ = type { ptr, ptr, i32, i32, %struct.Vec_Int_t_, %struct.Vec_Int_t_, %union.anon.1, %union.anon.2 }
%struct.Vec_Int_t_ = type { i32, i32, ptr }
%union.anon.1 = type { ptr }
%union.anon.2 = type { ptr }
%struct.Vec_Ptr_t_ = type { i32, i32, ptr }
%struct.Abc_Ntk_t_ = type { i32, i32, ptr, ptr, ptr, ptr, ptr, ptr, ptr, ptr, ptr, ptr, ptr, [11 x i32], i32, i32, i32, i32, ptr, i32, ptr, ptr, i32, i32, i32, double, i32, %struct.Vec_Int_t_, ptr, ptr, ptr, ptr, ptr, float, i32, ptr, ptr, ptr, ptr, ptr, ptr, ptr, ptr, ptr, ptr, ptr, ptr, ptr, ptr, ptr, ptr, ptr, ptr, ptr, ptr, ptr }
%struct.Aig_Man_t_ = type { ptr, ptr, ptr, ptr, ptr, ptr, ptr, %struct.Aig_Obj_t_, i32, i32, i32, i32, i32, i32, [7 x i32], i32, ptr, i32, ptr, i32, ptr, i32, i32, i32, ptr, i32, i32, i32, i32, i32, ptr, ptr, i32, ptr, ptr, i32, ptr, ptr, i32, i32, i32, ptr, ptr, ptr, ptr, ptr, ptr, ptr, ptr, ptr, ptr, ptr, ptr, ptr, ptr, i32, ptr, ptr, ptr, ptr, i32, i64, i64, i64, ptr, ptr }
%struct.Aig_Obj_t_ = type { %union.anon, ptr, ptr, i64, i32, i32, %union.anon.0 }
%union.anon = type { ptr }
%union.anon.0 = type { ptr }

@.str.19 = private unnamed_addr constant [73 x i8] c"Abc_NtkFromDar(): Network check has failed. Returning original network.\0A\00", align 1

; Function Attrs: nounwind uwtable
define internal i32 @Aig_IsComplement(ptr noundef %0) #0 {
  %2 = alloca ptr, align 8
  store ptr %0, ptr %2, align 8
  %3 = load ptr, ptr %2, align 8
  %4 = ptrtoint ptr %3 to i64
  %5 = and i64 %4, 1
  %6 = trunc i64 %5 to i32
  ret i32 %6
}

; Function Attrs: nounwind uwtable
define internal ptr @Aig_Regular(ptr noundef %0) #0 {
  %2 = alloca ptr, align 8
  store ptr %0, ptr %2, align 8
  %3 = load ptr, ptr %2, align 8
  %4 = ptrtoint ptr %3 to i64
  %5 = and i64 %4, -2
  %6 = inttoptr i64 %5 to ptr
  ret ptr %6
}

; Function Attrs: nounwind uwtable
define internal i32 @Aig_ObjFaninC1(ptr noundef %0) #0 {
  %2 = alloca ptr, align 8
  store ptr %0, ptr %2, align 8
  %3 = load ptr, ptr %2, align 8
  %4 = getelementptr inbounds %struct.Aig_Obj_t_, ptr %3, i32 0, i32 2
  %5 = load ptr, ptr %4, align 8
  %6 = call i32 @Aig_IsComplement(ptr noundef %5)
  ret i32 %6
}

; Function Attrs: nounwind uwtable
define internal ptr @Aig_ObjFanin1(ptr noundef %0) #0 {
  %2 = alloca ptr, align 8
  store ptr %0, ptr %2, align 8
  %3 = load ptr, ptr %2, align 8
  %4 = getelementptr inbounds %struct.Aig_Obj_t_, ptr %3, i32 0, i32 2
  %5 = load ptr, ptr %4, align 8
  %6 = call ptr @Aig_Regular(ptr noundef %5)
  ret ptr %6
}

; Function Attrs: nounwind uwtable
define internal ptr @Aig_NotCond(ptr noundef %0, i32 noundef %1) #0 {
  %3 = alloca ptr, align 8
  %4 = alloca i32, align 4
  store ptr %0, ptr %3, align 8
  store i32 %1, ptr %4, align 4
  %5 = load ptr, ptr %3, align 8
  %6 = ptrtoint ptr %5 to i64
  %7 = load i32, ptr %4, align 4
  %8 = sext i32 %7 to i64
  %9 = xor i64 %6, %8
  %10 = inttoptr i64 %9 to ptr
  ret ptr %10
}

; Function Attrs: nounwind uwtable
define internal i32 @Aig_ObjFaninC0(ptr noundef %0) #0 {
  %2 = alloca ptr, align 8
  store ptr %0, ptr %2, align 8
  %3 = load ptr, ptr %2, align 8
  %4 = getelementptr inbounds %struct.Aig_Obj_t_, ptr %3, i32 0, i32 1
  %5 = load ptr, ptr %4, align 8
  %6 = call i32 @Aig_IsComplement(ptr noundef %5)
  ret i32 %6
}

; Function Attrs: nounwind uwtable
define internal ptr @Aig_ObjFanin0(ptr noundef %0) #0 {
  %2 = alloca ptr, align 8
  store ptr %0, ptr %2, align 8
  %3 = load ptr, ptr %2, align 8
  %4 = getelementptr inbounds %struct.Aig_Obj_t_, ptr %3, i32 0, i32 1
  %5 = load ptr, ptr %4, align 8
  %6 = call ptr @Aig_Regular(ptr noundef %5)
  ret ptr %6
}

; Function Attrs: nounwind uwtable
define internal ptr @Abc_NtkCo(ptr noundef %0, i32 noundef %1) #0 {
  %3 = alloca ptr, align 8
  %4 = alloca i32, align 4
  store ptr %0, ptr %3, align 8
  store i32 %1, ptr %4, align 4
  %5 = load ptr, ptr %3, align 8
  %6 = getelementptr inbounds %struct.Abc_Ntk_t_, ptr %5, i32 0, i32 9
  %7 = load ptr, ptr %6, align 8
  %8 = load i32, ptr %4, align 4
  %9 = call ptr @Vec_PtrEntry(ptr noundef %7, i32 noundef %8)
  ret ptr %9
}

; Function Attrs: nounwind uwtable
define internal ptr @Aig_ObjEquiv(ptr noundef %0, ptr noundef %1) #0 {
  %3 = alloca ptr, align 8
  %4 = alloca ptr, align 8
  store ptr %0, ptr %3, align 8
  store ptr %1, ptr %4, align 8
  %5 = load ptr, ptr %3, align 8
  %6 = getelementptr inbounds %struct.Aig_Man_t_, ptr %5, i32 0, i32 30
  %7 = load ptr, ptr %6, align 8
  %8 = icmp ne ptr %7, null
  br i1 %8, label %9, label %19

9:                                                ; preds = %2
  %10 = load ptr, ptr %3, align 8
  %11 = getelementptr inbounds %struct.Aig_Man_t_, ptr %10, i32 0, i32 30
  %12 = load ptr, ptr %11, align 8
  %13 = load ptr, ptr %4, align 8
  %14 = getelementptr inbounds %struct.Aig_Obj_t_, ptr %13, i32 0, i32 5
  %15 = load i32, ptr %14, align 4
  %16 = sext i32 %15 to i64
  %17 = getelementptr inbounds ptr, ptr %12, i64 %16
  %18 = load ptr, ptr %17, align 8
  br label %20

19:                                               ; preds = %2
  br label %20

20:                                               ; preds = %19, %9
  %21 = phi ptr [ %18, %9 ], [ null, %19 ]
  ret ptr %21
}

; Function Attrs: nounwind uwtable
define internal ptr @Aig_ObjChild1Copy(ptr noundef %0) #0 {
  %2 = alloca ptr, align 8
  store ptr %0, ptr %2, align 8
  %3 = load ptr, ptr %2, align 8
  %4 = call ptr @Aig_ObjFanin1(ptr noundef %3)
  %5 = icmp ne ptr %4, null
  br i1 %5, label %6, label %14

6:                                                ; preds = %1
  %7 = load ptr, ptr %2, align 8
  %8 = call ptr @Aig_ObjFanin1(ptr noundef %7)
  %9 = getelementptr inbounds %struct.Aig_Obj_t_, ptr %8, i32 0, i32 6
  %10 = load ptr, ptr %9, align 8
  %11 = load ptr, ptr %2, align 8
  %12 = call i32 @Aig_ObjFaninC1(ptr noundef %11)
  %13 = call ptr @Aig_NotCond(ptr noundef %10, i32 noundef %12)
  br label %15

14:                                               ; preds = %1
  br label %15

15:                                               ; preds = %14, %6
  %16 = phi ptr [ %13, %6 ], [ null, %14 ]
  ret ptr %16
}

; Function Attrs: nounwind uwtable
define internal ptr @Aig_ObjChild0Copy(ptr noundef %0) #0 {
  %2 = alloca ptr, align 8
  store ptr %0, ptr %2, align 8
  %3 = load ptr, ptr %2, align 8
  %4 = call ptr @Aig_ObjFanin0(ptr noundef %3)
  %5 = icmp ne ptr %4, null
  br i1 %5, label %6, label %14

6:                                                ; preds = %1
  %7 = load ptr, ptr %2, align 8
  %8 = call ptr @Aig_ObjFanin0(ptr noundef %7)
  %9 = getelementptr inbounds %struct.Aig_Obj_t_, ptr %8, i32 0, i32 6
  %10 = load ptr, ptr %9, align 8
  %11 = load ptr, ptr %2, align 8
  %12 = call i32 @Aig_ObjFaninC0(ptr noundef %11)
  %13 = call ptr @Aig_NotCond(ptr noundef %10, i32 noundef %12)
  br label %15

14:                                               ; preds = %1
  br label %15

15:                                               ; preds = %14, %6
  %16 = phi ptr [ %13, %6 ], [ null, %14 ]
  ret ptr %16
}

; Function Attrs: nounwind uwtable
define internal i32 @Aig_ObjIsNode(ptr noundef %0) #0 {
  %2 = alloca ptr, align 8
  store ptr %0, ptr %2, align 8
  %3 = load ptr, ptr %2, align 8
  %4 = getelementptr inbounds %struct.Aig_Obj_t_, ptr %3, i32 0, i32 3
  %5 = load i64, ptr %4, align 8
  %6 = and i64 %5, 7
  %7 = trunc i64 %6 to i32
  %8 = icmp eq i32 %7, 5
  br i1 %8, label %16, label %9

9:                                                ; preds = %1
  %10 = load ptr, ptr %2, align 8
  %11 = getelementptr inbounds %struct.Aig_Obj_t_, ptr %10, i32 0, i32 3
  %12 = load i64, ptr %11, align 8
  %13 = and i64 %12, 7
  %14 = trunc i64 %13 to i32
  %15 = icmp eq i32 %14, 6
  br label %16

16:                                               ; preds = %9, %1
  %17 = phi i1 [ true, %1 ], [ %15, %9 ]
  %18 = zext i1 %17 to i32
  ret i32 %18
}

; Function Attrs: nounwind uwtable
define internal ptr @Abc_NtkCi(ptr noundef %0, i32 noundef %1) #0 {
  %3 = alloca ptr, align 8
  %4 = alloca i32, align 4
  store ptr %0, ptr %3, align 8
  store i32 %1, ptr %4, align 4
  %5 = load ptr, ptr %3, align 8
  %6 = getelementptr inbounds %struct.Abc_Ntk_t_, ptr %5, i32 0, i32 8
  %7 = load ptr, ptr %6, align 8
  %8 = load i32, ptr %4, align 4
  %9 = call ptr @Vec_PtrEntry(ptr noundef %7, i32 noundef %8)
  ret ptr %9
}

; Function Attrs: nounwind uwtable
define internal ptr @Vec_PtrEntry(ptr noundef %0, i32 noundef %1) #0 {
  %3 = alloca ptr, align 8
  %4 = alloca i32, align 4
  store ptr %0, ptr %3, align 8
  store i32 %1, ptr %4, align 4
  %5 = load ptr, ptr %3, align 8
  %6 = getelementptr inbounds %struct.Vec_Ptr_t_, ptr %5, i32 0, i32 2
  %7 = load ptr, ptr %6, align 8
  %8 = load i32, ptr %4, align 4
  %9 = sext i32 %8 to i64
  %10 = getelementptr inbounds ptr, ptr %7, i64 %9
  %11 = load ptr, ptr %10, align 8
  ret ptr %11
}

; Function Attrs: nounwind uwtable
define internal i32 @Vec_PtrSize(ptr noundef %0) #0 {
  %2 = alloca ptr, align 8
  store ptr %0, ptr %2, align 8
  %3 = load ptr, ptr %2, align 8
  %4 = getelementptr inbounds %struct.Vec_Ptr_t_, ptr %3, i32 0, i32 1
  %5 = load i32, ptr %4, align 4
  ret i32 %5
}

; Function Attrs: nounwind uwtable
define internal ptr @Aig_ManConst1(ptr noundef %0) #0 {
  %2 = alloca ptr, align 8
  store ptr %0, ptr %2, align 8
  %3 = load ptr, ptr %2, align 8
  %4 = getelementptr inbounds %struct.Aig_Man_t_, ptr %3, i32 0, i32 6
  %5 = load ptr, ptr %4, align 8
  ret ptr %5
}

; Function Attrs: nounwind uwtable
define ptr @Abc_NtkFromDarChoices(ptr noundef %0, ptr noundef %1) #0 {
  %3 = alloca ptr, align 8
  %4 = alloca ptr, align 8
  %5 = alloca ptr, align 8
  %6 = alloca ptr, align 8
  %7 = alloca ptr, align 8
  %8 = alloca i32, align 4
  store ptr %0, ptr %3, align 8
  store ptr %1, ptr %4, align 8
  %9 = load ptr, ptr %3, align 8
  %10 = call ptr @Abc_NtkStartFrom(ptr noundef %9, i32 noundef 3, i32 noundef 3)
  store ptr %10, ptr %5, align 8
  %11 = load ptr, ptr %4, align 8
  %12 = getelementptr inbounds %struct.Aig_Man_t_, ptr %11, i32 0, i32 12
  %13 = load i32, ptr %12, align 8
  %14 = load ptr, ptr %5, align 8
  %15 = getelementptr inbounds %struct.Abc_Ntk_t_, ptr %14, i32 0, i32 15
  store i32 %13, ptr %15, align 8
  %16 = load ptr, ptr %3, align 8
  %17 = getelementptr inbounds %struct.Abc_Ntk_t_, ptr %16, i32 0, i32 16
  %18 = load i32, ptr %17, align 4
  %19 = load ptr, ptr %5, align 8
  %20 = getelementptr inbounds %struct.Abc_Ntk_t_, ptr %19, i32 0, i32 16
  store i32 %18, ptr %20, align 4
  %21 = load ptr, ptr %4, align 8
  call void @Aig_ManCleanData(ptr noundef %21)
  %22 = load ptr, ptr %5, align 8
  %23 = call ptr @Abc_AigConst1(ptr noundef %22)
  %24 = load ptr, ptr %4, align 8
  %25 = call ptr @Aig_ManConst1(ptr noundef %24)
  %26 = getelementptr inbounds %struct.Aig_Obj_t_, ptr %25, i32 0, i32 6
  store ptr %23, ptr %26, align 8
  store i32 0, ptr %8, align 4
  br label %27

27:                                               ; preds = %48, %2
  %28 = load i32, ptr %8, align 4
  %29 = load ptr, ptr %4, align 8
  %30 = getelementptr inbounds %struct.Aig_Man_t_, ptr %29, i32 0, i32 2
  %31 = load ptr, ptr %30, align 8
  %32 = call i32 @Vec_PtrSize(ptr noundef %31)
  %33 = icmp slt i32 %28, %32
  br i1 %33, label %34, label %40

34:                                               ; preds = %27
  %35 = load ptr, ptr %4, align 8
  %36 = getelementptr inbounds %struct.Aig_Man_t_, ptr %35, i32 0, i32 2
  %37 = load ptr, ptr %36, align 8
  %38 = load i32, ptr %8, align 4
  %39 = call ptr @Vec_PtrEntry(ptr noundef %37, i32 noundef %38)
  store ptr %39, ptr %6, align 8
  br label %40

40:                                               ; preds = %34, %27
  %41 = phi i1 [ false, %27 ], [ true, %34 ]
  br i1 %41, label %42, label %51

42:                                               ; preds = %40
  %43 = load ptr, ptr %5, align 8
  %44 = load i32, ptr %8, align 4
  %45 = call ptr @Abc_NtkCi(ptr noundef %43, i32 noundef %44)
  %46 = load ptr, ptr %6, align 8
  %47 = getelementptr inbounds %struct.Aig_Obj_t_, ptr %46, i32 0, i32 6
  store ptr %45, ptr %47, align 8
  br label %48

48:                                               ; preds = %42
  %49 = load i32, ptr %8, align 4
  %50 = add nsw i32 %49, 1
  store i32 %50, ptr %8, align 4
  br label %27, !llvm.loop !67

51:                                               ; preds = %40
  store i32 0, ptr %8, align 4
  br label %52

52:                                               ; preds = %100, %51
  %53 = load i32, ptr %8, align 4
  %54 = load ptr, ptr %4, align 8
  %55 = getelementptr inbounds %struct.Aig_Man_t_, ptr %54, i32 0, i32 4
  %56 = load ptr, ptr %55, align 8
  %57 = call i32 @Vec_PtrSize(ptr noundef %56)
  %58 = icmp slt i32 %53, %57
  br i1 %58, label %59, label %65

59:                                               ; preds = %52
  %60 = load ptr, ptr %4, align 8
  %61 = getelementptr inbounds %struct.Aig_Man_t_, ptr %60, i32 0, i32 4
  %62 = load ptr, ptr %61, align 8
  %63 = load i32, ptr %8, align 4
  %64 = call ptr @Vec_PtrEntry(ptr noundef %62, i32 noundef %63)
  store ptr %64, ptr %6, align 8
  br label %65

65:                                               ; preds = %59, %52
  %66 = phi i1 [ false, %52 ], [ true, %59 ]
  br i1 %66, label %67, label %103

67:                                               ; preds = %65
  %68 = load ptr, ptr %6, align 8
  %69 = icmp eq ptr %68, null
  br i1 %69, label %74, label %70

70:                                               ; preds = %67
  %71 = load ptr, ptr %6, align 8
  %72 = call i32 @Aig_ObjIsNode(ptr noundef %71)
  %73 = icmp ne i32 %72, 0
  br i1 %73, label %75, label %74

74:                                               ; preds = %70, %67
  br label %99

75:                                               ; preds = %70
  %76 = load ptr, ptr %5, align 8
  %77 = getelementptr inbounds %struct.Abc_Ntk_t_, ptr %76, i32 0, i32 30
  %78 = load ptr, ptr %77, align 8
  %79 = load ptr, ptr %6, align 8
  %80 = call ptr @Aig_ObjChild0Copy(ptr noundef %79)
  %81 = load ptr, ptr %6, align 8
  %82 = call ptr @Aig_ObjChild1Copy(ptr noundef %81)
  %83 = call ptr @Abc_AigAnd(ptr noundef %78, ptr noundef %80, ptr noundef %82)
  %84 = load ptr, ptr %6, align 8
  %85 = getelementptr inbounds %struct.Aig_Obj_t_, ptr %84, i32 0, i32 6
  store ptr %83, ptr %85, align 8
  %86 = load ptr, ptr %4, align 8
  %87 = load ptr, ptr %6, align 8
  %88 = call ptr @Aig_ObjEquiv(ptr noundef %86, ptr noundef %87)
  store ptr %88, ptr %7, align 8
  %89 = icmp ne ptr %88, null
  br i1 %89, label %90, label %98

90:                                               ; preds = %75
  %91 = load ptr, ptr %7, align 8
  %92 = getelementptr inbounds %struct.Aig_Obj_t_, ptr %91, i32 0, i32 6
  %93 = load ptr, ptr %92, align 8
  %94 = load ptr, ptr %6, align 8
  %95 = getelementptr inbounds %struct.Aig_Obj_t_, ptr %94, i32 0, i32 6
  %96 = load ptr, ptr %95, align 8
  %97 = getelementptr inbounds %struct.Abc_Obj_t_, ptr %96, i32 0, i32 6
  store ptr %93, ptr %97, align 8
  br label %98

98:                                               ; preds = %90, %75
  br label %99

99:                                               ; preds = %98, %74
  br label %100

100:                                              ; preds = %99
  %101 = load i32, ptr %8, align 4
  %102 = add nsw i32 %101, 1
  store i32 %102, ptr %8, align 4
  br label %52, !llvm.loop !68

103:                                              ; preds = %65
  store i32 0, ptr %8, align 4
  br label %104

104:                                              ; preds = %125, %103
  %105 = load i32, ptr %8, align 4
  %106 = load ptr, ptr %4, align 8
  %107 = getelementptr inbounds %struct.Aig_Man_t_, ptr %106, i32 0, i32 3
  %108 = load ptr, ptr %107, align 8
  %109 = call i32 @Vec_PtrSize(ptr noundef %108)
  %110 = icmp slt i32 %105, %109
  br i1 %110, label %111, label %117

111:                                              ; preds = %104
  %112 = load ptr, ptr %4, align 8
  %113 = getelementptr inbounds %struct.Aig_Man_t_, ptr %112, i32 0, i32 3
  %114 = load ptr, ptr %113, align 8
  %115 = load i32, ptr %8, align 4
  %116 = call ptr @Vec_PtrEntry(ptr noundef %114, i32 noundef %115)
  store ptr %116, ptr %6, align 8
  br label %117

117:                                              ; preds = %111, %104
  %118 = phi i1 [ false, %104 ], [ true, %111 ]
  br i1 %118, label %119, label %128

119:                                              ; preds = %117
  %120 = load ptr, ptr %5, align 8
  %121 = load i32, ptr %8, align 4
  %122 = call ptr @Abc_NtkCo(ptr noundef %120, i32 noundef %121)
  %123 = load ptr, ptr %6, align 8
  %124 = call ptr @Aig_ObjChild0Copy(ptr noundef %123)
  call void @Abc_ObjAddFanin(ptr noundef %122, ptr noundef %124)
  br label %125

125:                                              ; preds = %119
  %126 = load i32, ptr %8, align 4
  %127 = add nsw i32 %126, 1
  store i32 %127, ptr %8, align 4
  br label %104, !llvm.loop !69

128:                                              ; preds = %117
  %129 = load ptr, ptr %5, align 8
  %130 = call i32 @Abc_NtkCheck(ptr noundef %129)
  %131 = icmp ne i32 %130, 0
  br i1 %131, label %136, label %132

132:                                              ; preds = %128
  call void (i32, ptr, ...) @Abc_Print(i32 noundef 1, ptr noundef @.str.19)
  %133 = load ptr, ptr %5, align 8
  call void @Abc_NtkDelete(ptr noundef %133)
  %134 = load ptr, ptr %3, align 8
  %135 = call ptr @Abc_NtkDup(ptr noundef %134)
  store ptr %135, ptr %5, align 8
  br label %136

136:                                              ; preds = %132, %128
  %137 = load ptr, ptr %5, align 8
  ret ptr %137
}