; Function Attrs: nounwind uwtable
define ptr @Abc_NtkFromDarChoices(ptr noundef %0, ptr noundef %1) local_unnamed_addr #1 {
  %3 = tail call ptr @Abc_NtkStartFrom(ptr noundef %0, i32 noundef 3, i32 noundef 3) #19
  %4 = getelementptr inbounds nuw i8, ptr %1, i64 120
  %5 = load i32, ptr %4, align 8
  %6 = getelementptr inbounds nuw i8, ptr %3, i64 144
  store i32 %5, ptr %6, align 8
  %7 = getelementptr inbounds nuw i8, ptr %0, i64 148
  %8 = load i32, ptr %7, align 4
  %9 = getelementptr inbounds nuw i8, ptr %3, i64 148
  store i32 %8, ptr %9, align 4
  tail call void @Aig_ManCleanData(ptr noundef %1) #19
  %10 = tail call ptr @Abc_AigConst1(ptr noundef %3) #19
  %11 = getelementptr i8, ptr %1, i64 48
  %.val56 = load ptr, ptr %11, align 8
  %12 = getelementptr inbounds nuw i8, ptr %.val56, i64 40
  store ptr %10, ptr %12, align 8
  %13 = getelementptr inbounds nuw i8, ptr %1, i64 16
  %14 = load ptr, ptr %13, align 8
  %15 = getelementptr i8, ptr %14, i64 4
  %.val5269 = load i32, ptr %15, align 4
  %16 = icmp sgt i32 %.val5269, 0
  br i1 %16, label %.lr.ph, label %.critedge.preheader

.lr.ph:                                           ; preds = %2
  %17 = getelementptr i8, ptr %3, i64 56
  br label %24

.critedge.preheader:                              ; preds = %24, %2
  %18 = getelementptr inbounds nuw i8, ptr %1, i64 32
  %19 = load ptr, ptr %18, align 8
  %20 = getelementptr i8, ptr %19, i64 4
  %.val5171 = load i32, ptr %20, align 4
  %21 = icmp sgt i32 %.val5171, 0
  br i1 %21, label %.lr.ph73, label %.critedge2.preheader

.lr.ph73:                                         ; preds = %.critedge.preheader
  %22 = getelementptr inbounds nuw i8, ptr %3, i64 256
  %23 = getelementptr i8, ptr %1, i64 248
  br label %42

24:                                               ; preds = %.lr.ph, %24
  %indvars.iv = phi i64 [ 0, %.lr.ph ], [ %indvars.iv.next, %24 ]
  %25 = phi ptr [ %14, %.lr.ph ], [ %33, %24 ]
  %26 = getelementptr i8, ptr %25, i64 8
  %.val55 = load ptr, ptr %26, align 8
  %27 = getelementptr inbounds nuw ptr, ptr %.val55, i64 %indvars.iv
  %28 = load ptr, ptr %27, align 8
  %.val57 = load ptr, ptr %17, align 8
  %29 = getelementptr i8, ptr %.val57, i64 8
  %.val57.val = load ptr, ptr %29, align 8
  %30 = getelementptr inbounds nuw ptr, ptr %.val57.val, i64 %indvars.iv
  %31 = load ptr, ptr %30, align 8
  %32 = getelementptr inbounds nuw i8, ptr %28, i64 40
  store ptr %31, ptr %32, align 8
  %indvars.iv.next = add nuw nsw i64 %indvars.iv, 1
  %33 = load ptr, ptr %13, align 8
  %34 = getelementptr i8, ptr %33, i64 4
  %.val52 = load i32, ptr %34, align 4
  %35 = sext i32 %.val52 to i64
  %36 = icmp slt i64 %indvars.iv.next, %35
  br i1 %36, label %24, label %.critedge.preheader, !llvm.loop !67

.critedge2.preheader:                             ; preds = %Aig_ObjEquiv.exit.thread, %.critedge.preheader
  %37 = getelementptr inbounds nuw i8, ptr %1, i64 24
  %38 = load ptr, ptr %37, align 8
  %39 = getelementptr i8, ptr %38, i64 4
  %.val74 = load i32, ptr %39, align 4
  %40 = icmp sgt i32 %.val74, 0
  br i1 %40, label %.lr.ph76, label %.critedge4

.lr.ph76:                                         ; preds = %.critedge2.preheader
  %41 = getelementptr i8, ptr %3, i64 64
  br label %94

42:                                               ; preds = %.lr.ph73, %Aig_ObjEquiv.exit.thread
  %indvars.iv78 = phi i64 [ 0, %.lr.ph73 ], [ %indvars.iv.next79, %Aig_ObjEquiv.exit.thread ]
  %43 = phi ptr [ %19, %.lr.ph73 ], [ %90, %Aig_ObjEquiv.exit.thread ]
  %44 = getelementptr i8, ptr %43, i64 8
  %.val54 = load ptr, ptr %44, align 8
  %45 = getelementptr inbounds nuw ptr, ptr %.val54, i64 %indvars.iv78
  %46 = load ptr, ptr %45, align 8
  %47 = icmp eq ptr %46, null
  br i1 %47, label %Aig_ObjEquiv.exit.thread, label %48

48:                                               ; preds = %42
  %49 = getelementptr i8, ptr %46, i64 24
  %.val62 = load i64, ptr %49, align 8
  %50 = trunc i64 %.val62 to i32
  %51 = and i32 %50, 7
  %52 = add nsw i32 %51, -7
  %narrow.i = icmp ult i32 %52, -2
  br i1 %narrow.i, label %Aig_ObjEquiv.exit.thread, label %53

53:                                               ; preds = %48
  %54 = load ptr, ptr %22, align 8
  %55 = getelementptr i8, ptr %46, i64 8
  %.val60 = load ptr, ptr %55, align 8
  %56 = ptrtoint ptr %.val60 to i64
  %57 = and i64 %56, -2
  %.not.i = icmp eq i64 %57, 0
  br i1 %.not.i, label %Aig_ObjChild0Copy.exit, label %58

58:                                               ; preds = %53
  %59 = inttoptr i64 %57 to ptr
  %60 = getelementptr inbounds nuw i8, ptr %59, i64 40
  %61 = load ptr, ptr %60, align 8
  %62 = and i64 %56, 1
  %63 = ptrtoint ptr %61 to i64
  %64 = xor i64 %62, %63
  %65 = inttoptr i64 %64 to ptr
  br label %Aig_ObjChild0Copy.exit

Aig_ObjChild0Copy.exit:                           ; preds = %53, %58
  %66 = phi ptr [ %65, %58 ], [ null, %53 ]
  %67 = getelementptr i8, ptr %46, i64 16
  %.val61 = load ptr, ptr %67, align 8
  %68 = ptrtoint ptr %.val61 to i64
  %69 = and i64 %68, -2
  %.not.i64 = icmp eq i64 %69, 0
  br i1 %.not.i64, label %Aig_ObjChild1Copy.exit, label %70

70:                                               ; preds = %Aig_ObjChild0Copy.exit
  %71 = inttoptr i64 %69 to ptr
  %72 = getelementptr inbounds nuw i8, ptr %71, i64 40
  %73 = load ptr, ptr %72, align 8
  %74 = and i64 %68, 1
  %75 = ptrtoint ptr %73 to i64
  %76 = xor i64 %74, %75
  %77 = inttoptr i64 %76 to ptr
  br label %Aig_ObjChild1Copy.exit

Aig_ObjChild1Copy.exit:                           ; preds = %Aig_ObjChild0Copy.exit, %70
  %78 = phi ptr [ %77, %70 ], [ null, %Aig_ObjChild0Copy.exit ]
  %79 = tail call ptr @Abc_AigAnd(ptr noundef %54, ptr noundef %66, ptr noundef %78) #19
  %80 = getelementptr inbounds nuw i8, ptr %46, i64 40
  store ptr %79, ptr %80, align 8
  %.val63 = load ptr, ptr %23, align 8
  %.not.i65 = icmp eq ptr %.val63, null
  br i1 %.not.i65, label %Aig_ObjEquiv.exit.thread, label %Aig_ObjEquiv.exit

Aig_ObjEquiv.exit:                                ; preds = %Aig_ObjChild1Copy.exit
  %81 = getelementptr inbounds nuw i8, ptr %46, i64 36
  %82 = load i32, ptr %81, align 4
  %83 = sext i32 %82 to i64
  %84 = getelementptr inbounds ptr, ptr %.val63, i64 %83
  %85 = load ptr, ptr %84, align 8
  %.not50 = icmp eq ptr %85, null
  br i1 %.not50, label %Aig_ObjEquiv.exit.thread, label %86

86:                                               ; preds = %Aig_ObjEquiv.exit
  %87 = getelementptr inbounds nuw i8, ptr %85, i64 40
  %88 = load ptr, ptr %87, align 8
  %89 = getelementptr inbounds nuw i8, ptr %79, i64 56
  store ptr %88, ptr %89, align 8
  br label %Aig_ObjEquiv.exit.thread

Aig_ObjEquiv.exit.thread:                         ; preds = %Aig_ObjChild1Copy.exit, %48, %42, %86, %Aig_ObjEquiv.exit
  %indvars.iv.next79 = add nuw nsw i64 %indvars.iv78, 1
  %90 = load ptr, ptr %18, align 8
  %91 = getelementptr i8, ptr %90, i64 4
  %.val51 = load i32, ptr %91, align 4
  %92 = sext i32 %.val51 to i64
  %93 = icmp slt i64 %indvars.iv.next79, %92
  br i1 %93, label %42, label %.critedge2.preheader, !llvm.loop !68

94:                                               ; preds = %.lr.ph76, %Aig_ObjChild0Copy.exit67
  %indvars.iv81 = phi i64 [ 0, %.lr.ph76 ], [ %indvars.iv.next82, %Aig_ObjChild0Copy.exit67 ]
  %95 = phi ptr [ %38, %.lr.ph76 ], [ %114, %Aig_ObjChild0Copy.exit67 ]
  %96 = getelementptr i8, ptr %95, i64 8
  %.val53 = load ptr, ptr %96, align 8
  %97 = getelementptr inbounds nuw ptr, ptr %.val53, i64 %indvars.iv81
  %98 = load ptr, ptr %97, align 8
  %.val58 = load ptr, ptr %41, align 8
  %99 = getelementptr i8, ptr %.val58, i64 8
  %.val58.val = load ptr, ptr %99, align 8
  %100 = getelementptr inbounds nuw ptr, ptr %.val58.val, i64 %indvars.iv81
  %101 = load ptr, ptr %100, align 8
  %102 = getelementptr i8, ptr %98, i64 8
  %.val59 = load ptr, ptr %102, align 8
  %103 = ptrtoint ptr %.val59 to i64
  %104 = and i64 %103, -2
  %.not.i66 = icmp eq i64 %104, 0
  br i1 %.not.i66, label %Aig_ObjChild0Copy.exit67, label %105

105:                                              ; preds = %94
  %106 = inttoptr i64 %104 to ptr
  %107 = getelementptr inbounds nuw i8, ptr %106, i64 40
  %108 = load ptr, ptr %107, align 8
  %109 = and i64 %103, 1
  %110 = ptrtoint ptr %108 to i64
  %111 = xor i64 %109, %110
  %112 = inttoptr i64 %111 to ptr
  br label %Aig_ObjChild0Copy.exit67

Aig_ObjChild0Copy.exit67:                         ; preds = %94, %105
  %113 = phi ptr [ %112, %105 ], [ null, %94 ]
  tail call void @Abc_ObjAddFanin(ptr noundef %101, ptr noundef %113) #19
  %indvars.iv.next82 = add nuw nsw i64 %indvars.iv81, 1
  %114 = load ptr, ptr %37, align 8
  %115 = getelementptr i8, ptr %114, i64 4
  %.val = load i32, ptr %115, align 4
  %116 = sext i32 %.val to i64
  %117 = icmp slt i64 %indvars.iv.next82, %116
  br i1 %117, label %94, label %.critedge4, !llvm.loop !69

.critedge4:                                       ; preds = %Aig_ObjChild0Copy.exit67, %.critedge2.preheader
  %118 = tail call i32 @Abc_NtkCheck(ptr noundef %3) #19
  %.not = icmp eq i32 %118, 0
  br i1 %.not, label %119, label %121

119:                                              ; preds = %.critedge4
  tail call void (i32, ptr, ...) @Abc_Print(i32 poison, ptr noundef nonnull @.str.19)
  tail call void @Abc_NtkDelete(ptr noundef %3) #19
  %120 = tail call ptr @Abc_NtkDup(ptr noundef %0) #19
  br label %121

121:                                              ; preds = %119, %.critedge4
  %.046 = phi ptr [ %3, %.critedge4 ], [ %120, %119 ]
  ret ptr %.046
}